target datalayout = "e-m:e-p270:32:32-p271:32:32-p272:64:64-i64:64-i128:128-f80:128-n8:16:32:64-S128"
target triple = "x86_64-pc-linux-gnu"

%struct.VP8DistoStats = type { i32, i32, i32, i32, i32, i32 }

; Function Attrs: nounwind uwtable
define internal double @SSIMCalculation(ptr noundef %0, i32 noundef %1) #0 {
  %3 = alloca double, align 8
  %4 = alloca ptr, align 8
  %5 = alloca i32, align 4
  %6 = alloca i32, align 4
  %7 = alloca i32, align 4
  %8 = alloca i32, align 4
  %9 = alloca i32, align 4
  %10 = alloca i64, align 8
  %11 = alloca i64, align 8
  %12 = alloca i64, align 8
  %13 = alloca i64, align 8
  %14 = alloca i64, align 8
  %15 = alloca i64, align 8
  %16 = alloca i64, align 8
  %17 = alloca i64, align 8
  %18 = alloca i64, align 8
  %19 = alloca i64, align 8
  %20 = alloca double, align 8
  store ptr %0, ptr %4, align 8
  store i32 %1, ptr %5, align 4
  %21 = load i32, ptr %5, align 4
  %22 = load i32, ptr %5, align 4
  %23 = mul i32 %21, %22
  store i32 %23, ptr %6, align 4
  %24 = load i32, ptr %6, align 4
  %25 = mul i32 20, %24
  store i32 %25, ptr %7, align 4
  %26 = load i32, ptr %6, align 4
  %27 = mul i32 60, %26
  store i32 %27, ptr %8, align 4
  %28 = load i32, ptr %6, align 4
  %29 = mul i32 64, %28
  store i32 %29, ptr %9, align 4
  %30 = load ptr, ptr %4, align 8
  %31 = getelementptr inbounds %struct.VP8DistoStats, ptr %30, i32 0, i32 1
  %32 = load i32, ptr %31, align 4
  %33 = zext i32 %32 to i64
  %34 = load ptr, ptr %4, align 8
  %35 = getelementptr inbounds %struct.VP8DistoStats, ptr %34, i32 0, i32 1
  %36 = load i32, ptr %35, align 4
  %37 = zext i32 %36 to i64
  %38 = mul i64 %33, %37
  store i64 %38, ptr %10, align 8
  %39 = load ptr, ptr %4, align 8
  %40 = getelementptr inbounds %struct.VP8DistoStats, ptr %39, i32 0, i32 2
  %41 = load i32, ptr %40, align 4
  %42 = zext i32 %41 to i64
  %43 = load ptr, ptr %4, align 8
  %44 = getelementptr inbounds %struct.VP8DistoStats, ptr %43, i32 0, i32 2
  %45 = load i32, ptr %44, align 4
  %46 = zext i32 %45 to i64
  %47 = mul i64 %42, %46
  store i64 %47, ptr %11, align 8
  %48 = load i64, ptr %10, align 8
  %49 = load i64, ptr %11, align 8
  %50 = add i64 %48, %49
  %51 = load i32, ptr %9, align 4
  %52 = zext i32 %51 to i64
  %53 = icmp uge i64 %50, %52
  br i1 %53, label %54, label %131

54:                                               ; preds = %2
  %55 = load ptr, ptr %4, align 8
  %56 = getelementptr inbounds %struct.VP8DistoStats, ptr %55, i32 0, i32 1
  %57 = load i32, ptr %56, align 4
  %58 = zext i32 %57 to i64
  %59 = load ptr, ptr %4, align 8
  %60 = getelementptr inbounds %struct.VP8DistoStats, ptr %59, i32 0, i32 2
  %61 = load i32, ptr %60, align 4
  %62 = zext i32 %61 to i64
  %63 = mul nsw i64 %58, %62
  store i64 %63, ptr %12, align 8
  %64 = load ptr, ptr %4, align 8
  %65 = getelementptr inbounds %struct.VP8DistoStats, ptr %64, i32 0, i32 4
  %66 = load i32, ptr %65, align 4
  %67 = zext i32 %66 to i64
  %68 = load i32, ptr %5, align 4
  %69 = zext i32 %68 to i64
  %70 = mul nsw i64 %67, %69
  %71 = load i64, ptr %12, align 8
  %72 = sub nsw i64 %70, %71
  store i64 %72, ptr %13, align 8
  %73 = load ptr, ptr %4, align 8
  %74 = getelementptr inbounds %struct.VP8DistoStats, ptr %73, i32 0, i32 3
  %75 = load i32, ptr %74, align 4
  %76 = zext i32 %75 to i64
  %77 = load i32, ptr %5, align 4
  %78 = zext i32 %77 to i64
  %79 = mul i64 %76, %78
  %80 = load i64, ptr %10, align 8
  %81 = sub i64 %79, %80
  store i64 %81, ptr %14, align 8
  %82 = load ptr, ptr %4, align 8
  %83 = getelementptr inbounds %struct.VP8DistoStats, ptr %82, i32 0, i32 5
  %84 = load i32, ptr %83, align 4
  %85 = zext i32 %84 to i64
  %86 = load i32, ptr %5, align 4
  %87 = zext i32 %86 to i64
  %88 = mul i64 %85, %87
  %89 = load i64, ptr %11, align 8
  %90 = sub i64 %88, %89
  store i64 %90, ptr %15, align 8
  %91 = load i64, ptr %13, align 8
  %92 = icmp slt i64 %91, 0
  br i1 %92, label %93, label %94

93:                                               ; preds = %54
  br label %96

94:                                               ; preds = %54
  %95 = load i64, ptr %13, align 8
  br label %96

96:                                               ; preds = %94, %93
  %97 = phi i64 [ 0, %93 ], [ %95, %94 ]
  %98 = mul i64 2, %97
  %99 = load i32, ptr %8, align 4
  %100 = zext i32 %99 to i64
  %101 = add i64 %98, %100
  %102 = lshr i64 %101, 8
  store i64 %102, ptr %16, align 8
  %103 = load i64, ptr %14, align 8
  %104 = load i64, ptr %15, align 8
  %105 = add i64 %103, %104
  %106 = load i32, ptr %8, align 4
  %107 = zext i32 %106 to i64
  %108 = add i64 %105, %107
  %109 = lshr i64 %108, 8
  store i64 %109, ptr %17, align 8
  %110 = load i64, ptr %12, align 8
  %111 = mul nsw i64 2, %110
  %112 = load i32, ptr %7, align 4
  %113 = zext i32 %112 to i64
  %114 = add nsw i64 %111, %113
  %115 = load i64, ptr %16, align 8
  %116 = mul i64 %114, %115
  store i64 %116, ptr %18, align 8
  %117 = load i64, ptr %10, align 8
  %118 = load i64, ptr %11, align 8
  %119 = add i64 %117, %118
  %120 = load i32, ptr %7, align 4
  %121 = zext i32 %120 to i64
  %122 = add i64 %119, %121
  %123 = load i64, ptr %17, align 8
  %124 = mul i64 %122, %123
  store i64 %124, ptr %19, align 8
  %125 = load i64, ptr %18, align 8
  %126 = uitofp i64 %125 to double
  %127 = load i64, ptr %19, align 8
  %128 = uitofp i64 %127 to double
  %129 = fdiv double %126, %128
  store double %129, ptr %20, align 8
  %130 = load double, ptr %20, align 8
  store double %130, ptr %3, align 8
  br label %132

131:                                              ; preds = %2
  store double 1.000000e+00, ptr %3, align 8
  br label %132

132:                                              ; preds = %131, %96
  %133 = load double, ptr %3, align 8
  ret double %133
}

; Function Attrs: nounwind uwtable
define hidden double @VP8SSIMFromStats(ptr noundef %0) #0 {
  %2 = alloca ptr, align 8
  store ptr %0, ptr %2, align 8
  %3 = load ptr, ptr %2, align 8
  %4 = call double @SSIMCalculation(ptr noundef %3, i32 noundef 256)
  ret double %4
}