; Function Attrs: mustprogress nofree norecurse nosync nounwind willreturn memory(argmem: read) uwtable
define hidden double @VP8SSIMFromStats(ptr nocapture noundef readonly %0) local_unnamed_addr #0 {
  %2 = getelementptr inbounds i8, ptr %0, i64 4
  %3 = load i32, ptr %2, align 4
  %4 = zext i32 %3 to i64
  %5 = mul nuw i64 %4, %4
  %6 = getelementptr inbounds i8, ptr %0, i64 8
  %7 = load i32, ptr %6, align 4
  %8 = zext i32 %7 to i64
  %9 = mul nuw i64 %8, %8
  %10 = add i64 %9, %5
  %.not.i = icmp ult i64 %10, 4194304
  br i1 %.not.i, label %SSIMCalculation.exit, label %11

11:                                               ; preds = %1
  %12 = mul nuw nsw i64 %8, %4
  %13 = getelementptr inbounds i8, ptr %0, i64 16
  %14 = load i32, ptr %13, align 4
  %15 = zext i32 %14 to i64
  %16 = shl nuw nsw i64 %15, 8
  %17 = sub nsw i64 %16, %12
  %18 = getelementptr inbounds i8, ptr %0, i64 12
  %19 = load i32, ptr %18, align 4
  %20 = zext i32 %19 to i64
  %21 = getelementptr inbounds i8, ptr %0, i64 20
  %22 = load i32, ptr %21, align 4
  %23 = zext i32 %22 to i64
  %24 = tail call i64 @llvm.smax.i64(i64 %17, i64 0)
  %25 = shl nuw nsw i64 %24, 1
  %26 = add nuw nsw i64 %25, 3932160
  %27 = lshr i64 %26, 8
  %reass.add.i = add nuw nsw i64 %23, %20
  %reass.mul.i = shl nuw nsw i64 %reass.add.i, 8
  %reass.sub1 = sub i64 %reass.mul.i, %10
  %28 = add i64 %reass.sub1, 3932160
  %29 = lshr i64 %28, 8
  %30 = shl nuw nsw i64 %12, 1
  %31 = add nuw nsw i64 %30, 1310720
  %32 = mul i64 %27, %31
  %33 = add i64 %10, 1310720
  %34 = mul i64 %29, %33
  %35 = uitofp i64 %32 to double
  %36 = uitofp i64 %34 to double
  %37 = fdiv double %35, %36
  br label %SSIMCalculation.exit

SSIMCalculation.exit:                             ; preds = %1, %11
  %.0.i = phi double [ %37, %11 ], [ 1.000000e+00, %1 ]
  ret double %.0.i
}